target datalayout = "e-m:e-p270:32:32-p271:32:32-p272:64:64-i64:64-i128:128-f80:128-n8:16:32:64-S128"
target triple = "x86_64-pc-linux-gnu"

%struct.AVRational = type { i32, i32 }

@.str.3 = private unnamed_addr constant [21 x i8] c"%02u:%02u:%02u%c%02u\00", align 1

; Function Attrs: nounwind uwtable
define ptr @av_timecode_make_smpte_tc_string2(ptr noundef %0, i64 %1, i32 noundef %2, i32 noundef %3, i32 noundef %4) #0 {
  %6 = alloca %struct.AVRational, align 4
  %7 = alloca ptr, align 8
  %8 = alloca i32, align 4
  %9 = alloca i32, align 4
  %10 = alloca i32, align 4
  %11 = alloca i32, align 4
  %12 = alloca i32, align 4
  %13 = alloca i32, align 4
  %14 = alloca i32, align 4
  %15 = alloca i32, align 4
  store i64 %1, ptr %6, align 4
  store ptr %0, ptr %7, align 8, !tbaa !19
  store i32 %2, ptr %8, align 4, !tbaa !4
  store i32 %3, ptr %9, align 4, !tbaa !4
  store i32 %4, ptr %10, align 4, !tbaa !4
  call void @llvm.lifetime.start.p0(i64 4, ptr %11) #8
  call void @llvm.lifetime.start.p0(i64 4, ptr %12) #8
  call void @llvm.lifetime.start.p0(i64 4, ptr %13) #8
  call void @llvm.lifetime.start.p0(i64 4, ptr %14) #8
  call void @llvm.lifetime.start.p0(i64 4, ptr %15) #8
  %16 = load i32, ptr %8, align 4, !tbaa !4
  %17 = load i32, ptr %9, align 4, !tbaa !4
  %18 = load i32, ptr %10, align 4, !tbaa !4
  %19 = load i64, ptr %6, align 4
  call void @ff_timecode_set_smpte(ptr noundef %15, ptr noundef %11, ptr noundef %12, ptr noundef %13, ptr noundef %14, i64 %19, i32 noundef %16, i32 noundef %17, i32 noundef %18)
  %20 = load ptr, ptr %7, align 8, !tbaa !19
  %21 = load i32, ptr %11, align 4, !tbaa !4
  %22 = load i32, ptr %12, align 4, !tbaa !4
  %23 = load i32, ptr %13, align 4, !tbaa !4
  %24 = load i32, ptr %15, align 4, !tbaa !4
  %25 = icmp ne i32 %24, 0
  %26 = select i1 %25, i32 59, i32 58
  %27 = load i32, ptr %14, align 4, !tbaa !4
  %28 = call i32 (ptr, i64, ptr, ...) @snprintf(ptr noundef %20, i64 noundef 23, ptr noundef @.str.3, i32 noundef %21, i32 noundef %22, i32 noundef %23, i32 noundef %26, i32 noundef %27) #8
  %29 = load ptr, ptr %7, align 8, !tbaa !19
  call void @llvm.lifetime.end.p0(i64 4, ptr %15) #8
  call void @llvm.lifetime.end.p0(i64 4, ptr %14) #8
  call void @llvm.lifetime.end.p0(i64 4, ptr %13) #8
  call void @llvm.lifetime.end.p0(i64 4, ptr %12) #8
  call void @llvm.lifetime.end.p0(i64 4, ptr %11) #8
  ret ptr %29
}