; Function Attrs: nounwind uwtable
define noundef ptr @av_timecode_make_smpte_tc_string2(ptr noundef returned writeonly captures(ret: address, provenance) %0, i64 %1, i32 noundef %2, i32 noundef %3, i32 noundef %4) local_unnamed_addr #5 {
  %6 = alloca i32, align 4
  %7 = alloca i32, align 4
  %8 = alloca i32, align 4
  %9 = alloca i32, align 4
  %10 = alloca i32, align 4
  call void @llvm.lifetime.start.p0(i64 4, ptr nonnull %6) #10
  call void @llvm.lifetime.start.p0(i64 4, ptr nonnull %7) #10
  call void @llvm.lifetime.start.p0(i64 4, ptr nonnull %8) #10
  call void @llvm.lifetime.start.p0(i64 4, ptr nonnull %9) #10
  call void @llvm.lifetime.start.p0(i64 4, ptr nonnull %10) #10
  call void @ff_timecode_set_smpte(ptr noundef nonnull %10, ptr noundef nonnull %6, ptr noundef nonnull %7, ptr noundef nonnull %8, ptr noundef nonnull %9, i64 %1, i32 noundef %2, i32 noundef %3, i32 noundef %4) #10
  %11 = load i32, ptr %6, align 4, !tbaa !12
  %12 = load i32, ptr %7, align 4, !tbaa !12
  %13 = load i32, ptr %8, align 4, !tbaa !12
  %14 = load i32, ptr %10, align 4, !tbaa !12
  %.not = icmp eq i32 %14, 0
  %15 = select i1 %.not, i32 58, i32 59
  %16 = load i32, ptr %9, align 4, !tbaa !12
  %17 = call i32 (ptr, i64, ptr, ...) @snprintf(ptr noundef nonnull dereferenceable(1) %0, i64 noundef 23, ptr noundef nonnull @.str.3, i32 noundef %11, i32 noundef %12, i32 noundef %13, i32 noundef %15, i32 noundef %16) #10
  call void @llvm.lifetime.end.p0(i64 4, ptr nonnull %10) #10
  call void @llvm.lifetime.end.p0(i64 4, ptr nonnull %9) #10
  call void @llvm.lifetime.end.p0(i64 4, ptr nonnull %8) #10
  call void @llvm.lifetime.end.p0(i64 4, ptr nonnull %7) #10
  call void @llvm.lifetime.end.p0(i64 4, ptr nonnull %6) #10
  ret ptr %0
}